(dp0
S'METTS MARK'
p1
(dp2
S'to_messages'
p3
I807
sS'to_ratio'
p4
F0.04708798017348203
sS'deferral_payments'
p5
S'NaN'
p6
sS'salary_bonus_ratio'
p7
F0.6096466666666667
sS'expenses'
p8
I94299
sS'poi'
p9
I00
sS'stock_ratio'
p10
S'NaN'
p11
sS'deferred_income'
p12
g6
sS'email_address'
p13
S'mark.metts@enron.com'
p14
sS'long_term_incentive'
p15
g6
sS'restricted_stock_deferred'
p16
g6
sS'shared_receipt_with_poi'
p17
I702
sS'loan_advances'
p18
g6
sS'from_messages'
p19
I29
sS'other'
p20
I1740
sS'director_fees'
p21
g6
sS'bonus'
p22
I600000
sS'total_stock_value'
p23
I585062
sS'from_poi_to_this_person'
p24
I38
sS'from_this_person_to_poi'
p25
I1
sS'restricted_stock'
p26
I585062
sS'salary'
p27
I365788
sS'total_payments'
p28
I1061827
sS'from_ratio'
p29
F0.034482758620689655
sS'exercised_stock_options'
p30
g6
sS'bonus_total_ratio'
p31
F0.5650638004119315
ssS'BAXTER JOHN C'
p32
(dp33
g3
g6
sg4
g11
sg5
I1295738
sg7
F0.222585
sg8
I11200
sg9
I00
sg10
F0.6288601858299968
sg12
I-1386055
sg13
g6
sg15
I1586055
sg16
g6
sg17
g6
sg18
g6
sg19
g6
sg20
I2660303
sg21
g6
sg22
I1200000
sg23
I10623258
sg24
g6
sg25
g6
sg26
I3942714
sg27
I267102
sg28
I5634343
sg29
g11
sg30
I6680544
sg31
F0.21297957898551792
ssS'ELLIOTT STEVEN'
p34
(dp35
g3
g6
sg4
g11
sg5
g6
sg7
F0.48840285714285714
sg8
I78552
sg9
I00
sg10
F0.7322260877246963
sg12
I-400729
sg13
S'steven.elliott@enron.com'
p36
sg15
g6
sg16
g6
sg17
g6
sg18
g6
sg19
g6
sg20
I12961
sg21
g6
sg22
I350000
sg23
I6678735
sg24
g6
sg25
g6
sg26
I1788391
sg27
I170941
sg28
I211725
sg29
g11
sg30
I4890344
sg31
F1.6530877317274766
ssS'CORDES WILLIAM R'
p37
(dp38
g3
I764
sg4
F0.013089005235602094
sg5
g6
sg7
g11
sg8
g6
sg9
I00
sg10
F0.6278746080900803
sg12
g6
sg13
S'bill.cordes@enron.com'
p39
sg15
g6
sg16
g6
sg17
I58
sg18
g6
sg19
I12
sg20
g6
sg21
g6
sg22
g6
sg23
I1038185
sg24
I10
sg25
I0
sg26
I386335
sg27
g6
sg28
g6
sg29
F0.0
sg30
I651850
sg31
g11
ssS'HANNON KEVIN P'
p40
(dp41
g3
I1045
sg4
F0.03062200956937799
sg5
g6
sg7
F0.16219533333333333
sg8
I34039
sg9
I01
sg10
F0.8665224027607292
sg12
I-3117011
sg13
S'kevin.hannon@enron.com'
p42
sg15
I1617011
sg16
g6
sg17
I1035
sg18
g6
sg19
I32
sg20
I11350
sg21
g6
sg22
I1500000
sg23
I6391065
sg24
I32
sg25
I21
sg26
I853064
sg27
I243293
sg28
I288682
sg29
F0.65625
sg30
I5538001
sg31
F5.196028848352166
ssS'MORDAUNT KRISTINA M'
p43
(dp44
g3
g6
sg4
g11
sg5
g6
sg7
F0.8218246153846154
sg8
I35018
sg9
I00
sg10
g11
sg12
g6
sg13
S'kristina.mordaunt@enron.com'
p45
sg15
g6
sg16
g6
sg17
g6
sg18
g6
sg19
g6
sg20
I1411
sg21
g6
sg22
I325000
sg23
I208510
sg24
g6
sg25
g6
sg26
I208510
sg27
I267093
sg28
I628522
sg29
g11
sg30
g6
sg31
F0.5170861163173286
ssS'MEYER ROCKFORD G'
p46
(dp47
g3
I232
sg4
F0.0
sg5
I1848227
sg7
g11
sg8
g6
sg9
I00
sg10
F0.5162704668925684
sg12
g6
sg13
S'rockford.meyer@enron.com'
p48
sg15
g6
sg16
g6
sg17
I22
sg18
g6
sg19
I28
sg20
g6
sg21
g6
sg22
g6
sg23
I955873
sg24
I0
sg25
I0
sg26
I462384
sg27
g6
sg28
I1848227
sg29
F0.0
sg30
I493489
sg31
g11
ssS'MCMAHON JEFFREY'
p49
(dp50
g3
I2355
sg4
F0.024628450106157114
sg5
g6
sg7
F0.14248
sg8
I137108
sg9
I00
sg10
F0.6639508556067727
sg12
g6
sg13
S'jeffrey.mcmahon@enron.com'
p51
sg15
I694862
sg16
g6
sg17
I2228
sg18
g6
sg19
I48
sg20
I297353
sg21
g6
sg22
I2600000
sg23
I1662855
sg24
I58
sg25
I26
sg26
I558801
sg27
I370448
sg28
I4099771
sg29
F0.5416666666666666
sg30
I1104054
sg31
F0.6341817628350461
ssS'HORTON STANLEY C'
p52
(dp53
g3
I2350
sg4
F0.01872340425531915
sg5
I3131860
sg7
g11
sg8
g6
sg9
I00
sg10
F0.7180407538025821
sg12
g6
sg13
S'stanley.horton@enron.com'
p54
sg15
g6
sg16
g6
sg17
I1074
sg18
g6
sg19
I1073
sg20
g6
sg21
g6
sg22
g6
sg23
I7256648
sg24
I44
sg25
I15
sg26
I2046079
sg27
g6
sg28
I3131860
sg29
F0.013979496738117428
sg30
I5210569
sg31
g11
ssS'PIPER GREGORY F'
p55
(dp56
g3
I1238
sg4
F0.049273021001615507
sg5
I1130036
sg7
F0.4927275
sg8
I43057
sg9
I00
sg10
F1.0
sg12
I-33333
sg13
S'greg.piper@enron.com'
p57
sg15
g6
sg16
I-409554
sg17
I742
sg18
g6
sg19
I222
sg20
I778
sg21
g6
sg22
I400000
sg23
I880290
sg24
I61
sg25
I48
sg26
I409554
sg27
I197091
sg28
I1737629
sg29
F0.21621621621621623
sg30
I880290
sg31
F0.23019873632403695
ssS'HUMPHREY GENE E'
p58
(dp59
g3
I128
sg4
F0.078125
sg5
I2964506
sg7
g11
sg8
I4994
sg9
I00
sg10
F1.0
sg12
g6
sg13
S'gene.humphrey@enron.com'
p60
sg15
g6
sg16
g6
sg17
I119
sg18
g6
sg19
I17
sg20
g6
sg21
g6
sg22
g6
sg23
I2282768
sg24
I10
sg25
I17
sg26
g6
sg27
I130724
sg28
I3100224
sg29
F1.0
sg30
I2282768
sg31
g11
ssS'UMANOFF ADAM S'
p61
(dp62
g3
I111
sg4
F0.10810810810810811
sg5
g6
sg7
F0.36588145800316957
sg8
I53122
sg9
I00
sg10
g11
sg12
g6
sg13
S'adam.umanoff@enron.com'
p63
sg15
g6
sg16
g6
sg17
I41
sg18
g6
sg19
I18
sg20
g6
sg21
g6
sg22
I788750
sg23
g6
sg24
I12
sg25
I0
sg26
g6
sg27
I288589
sg28
I1130461
sg29
F0.0
sg30
g6
sg31
F0.6977242027809893
ssS'BLACHMAN JEREMY M'
p64
(dp65
g3
I2475
sg4
F0.010101010101010102
sg5
g6
sg7
F0.2924070588235294
sg8
I84208
sg9
I00
sg10
F0.8019173178925221
sg12
g6
sg13
S'jeremy.blachman@enron.com'
p66
sg15
I831809
sg16
g6
sg17
I2326
sg18
g6
sg19
I14
sg20
I272
sg21
g6
sg22
I850000
sg23
I954354
sg24
I25
sg25
I2
sg26
I189041
sg27
I248546
sg28
I2014835
sg29
F0.14285714285714285
sg30
I765313
sg31
F0.4218707735372872
ssS'SUNDE MARTIN'
p67
(dp68
g3
I2647
sg4
F0.013978088401964487
sg5
g6
sg7
F0.36783714285714286
sg8
g6
sg9
I00
sg10
g11
sg12
g6
sg13
S'marty.sunde@enron.com'
p69
sg15
I476451
sg16
g6
sg17
I2565
sg18
g6
sg19
I38
sg20
I111122
sg21
g6
sg22
I700000
sg23
I698920
sg24
I37
sg25
I13
sg26
I698920
sg27
I257486
sg28
I1545059
sg29
F0.34210526315789475
sg30
g6
sg31
F0.4530571324460749
ssS'GIBBS DANA R'
p70
(dp71
g3
I169
sg4
F0.0
sg5
I504610
sg7
g11
sg8
g6
sg9
I00
sg10
F1.0
sg12
g6
sg13
S'dana.gibbs@enron.com'
p72
sg15
I461912
sg16
g6
sg17
I23
sg18
g6
sg19
I12
sg20
g6
sg21
g6
sg22
g6
sg23
I2218275
sg24
I0
sg25
I0
sg26
g6
sg27
g6
sg28
I966522
sg29
F0.0
sg30
I2218275
sg31
g11
ssS'LOWRY CHARLES P'
p73
(dp74
g3
g6
sg4
g11
sg5
g6
sg7
g11
sg8
g6
sg9
I00
sg10
F1.0
sg12
g6
sg13
g6
sg15
g6
sg16
I-153686
sg17
g6
sg18
g6
sg19
g6
sg20
g6
sg21
g6
sg22
g6
sg23
I372205
sg24
g6
sg25
g6
sg26
I153686
sg27
g6
sg28
g6
sg29
g11
sg30
I372205
sg31
g11
ssS'COLWELL WESLEY'
p75
(dp76
g3
I1758
sg4
F0.13651877133105803
sg5
I27610
sg7
F0.24045166666666667
sg8
I16514
sg9
I01
sg10
g11
sg12
I-144062
sg13
S'wes.colwell@enron.com'
p77
sg15
g6
sg16
g6
sg17
I1132
sg18
g6
sg19
I40
sg20
I101740
sg21
g6
sg22
I1200000
sg23
I698242
sg24
I240
sg25
I11
sg26
I698242
sg27
I288542
sg28
I1490344
sg29
F0.275
sg30
g6
sg31
F0.8051832328643588
ssS'MULLER MARK S'
p78
(dp79
g3
I136
sg4
F0.08823529411764706
sg5
I842924
sg7
F0.22877636363636364
sg8
g6
sg9
I00
sg10
F0.7455422176549636
sg12
I-719000
sg13
S's..muller@enron.com'
p80
sg15
I1725545
sg16
g6
sg17
I114
sg18
g6
sg19
I16
sg20
I947
sg21
g6
sg22
I1100000
sg23
I1416848
sg24
I12
sg25
I0
sg26
I360528
sg27
I251654
sg28
I3202070
sg29
F0.0
sg30
I1056320
sg31
F0.3435277804670104
ssS'JACKSON CHARLENE R'
p81
(dp82
g3
I258
sg4
F0.09689922480620156
sg5
g6
sg7
F1.154232
sg8
I10181
sg9
I00
sg10
F0.25500079230021977
sg12
g6
sg13
S'charlene.jackson@enron.com'
p83
sg15
g6
sg16
g6
sg17
I117
sg18
g6
sg19
I56
sg20
I2435
sg21
g6
sg22
I250000
sg23
I725735
sg24
I25
sg25
I19
sg26
I540672
sg27
I288558
sg28
I551174
sg29
F0.3392857142857143
sg30
I185063
sg31
F0.453577273238578
ssS'WESTFAHL RICHARD K'
p84
(dp85
g3
g6
sg4
g11
sg5
g6
sg7
g11
sg8
I51870
sg9
I00
sg10
g11
sg12
I-10800
sg13
S'dick.westfahl@enron.com'
p86
sg15
I256191
sg16
g6
sg17
g6
sg18
g6
sg19
g6
sg20
I401130
sg21
g6
sg22
g6
sg23
I384930
sg24
g6
sg25
g6
sg26
I384930
sg27
I63744
sg28
I762135
sg29
g11
sg30
g6
sg31
g11
ssS'WALTERS GARETH W'
p87
(dp88
g3
g6
sg4
g11
sg5
I53625
sg7
g11
sg8
I33785
sg9
I00
sg10
F1.0
sg12
g6
sg13
g6
sg15
g6
sg16
g6
sg17
g6
sg18
g6
sg19
g6
sg20
g6
sg21
g6
sg22
g6
sg23
I1030329
sg24
g6
sg25
g6
sg26
g6
sg27
g6
sg28
I87410
sg29
g11
sg30
I1030329
sg31
g11
ssS'WALLS JR ROBERT H'
p89
(dp90
g3
I671
sg4
F0.02533532041728763
sg5
g6
sg7
F0.4201070588235294
sg8
I50936
sg9
I00
sg10
F0.7368276335790643
sg12
g6
sg13
S'rob.walls@enron.com'
p91
sg15
I540751
sg16
g6
sg17
I215
sg18
g6
sg19
I146
sg20
I2
sg21
g6
sg22
I850000
sg23
I5898997
sg24
I17
sg25
I0
sg26
I1552453
sg27
I357091
sg28
I1798780
sg29
F0.0
sg30
I4346544
sg31
F0.47254250102847484
ssS'KITCHEN LOUISE'
p92
(dp93
g3
I8305
sg4
F0.030222757375075255
sg5
g6
sg7
F0.08756193548387096
sg8
I5774
sg9
I00
sg10
F0.14811849918577044
sg12
g6
sg13
S'louise.kitchen@enron.com'
p94
sg15
g6
sg16
g6
sg17
I3669
sg18
g6
sg19
I1728
sg20
I93925
sg21
g6
sg22
I3100000
sg23
I547143
sg24
I251
sg25
I194
sg26
I466101
sg27
I271442
sg28
I3471141
sg29
F0.11226851851851852
sg30
I81042
sg31
F0.8930780973748977
ssS'CHAN RONNIE'
p95
(dp96
g3
g6
sg4
g11
sg5
g6
sg7
g11
sg8
g6
sg9
I00
sg10
g11
sg12
I-98784
sg13
g6
sg15
g6
sg16
I-32460
sg17
g6
sg18
g6
sg19
g6
sg20
g6
sg21
I98784
sg22
g6
sg23
g6
sg24
g6
sg25
g6
sg26
I32460
sg27
g6
sg28
g6
sg29
g11
sg30
g6
sg31
g11
ssS'BELFER ROBERT'
p97
(dp98
g3
g6
sg4
g11
sg5
I-102500
sg7
g11
sg8
g6
sg9
I00
sg10
F-0.07450162157258522
sg12
g6
sg13
g6
sg15
g6
sg16
I44093
sg17
g6
sg18
g6
sg19
g6
sg20
g6
sg21
I3285
sg22
g6
sg23
I-44093
sg24
g6
sg25
g6
sg26
g6
sg27
g6
sg28
I102500
sg29
g11
sg30
I3285
sg31
g11
ssS'SHANKMAN JEFFREY A'
p99
(dp100
g3
I3221
sg4
F0.029183483390251473
sg5
g6
sg7
F0.152055
sg8
I178979
sg9
I00
sg10
F0.6958849633331483
sg12
g6
sg13
S'jeffrey.shankman@enron.com'
p101
sg15
I554422
sg16
g6
sg17
I1730
sg18
g6
sg19
I2681
sg20
I1191
sg21
g6
sg22
I2000000
sg23
I2072035
sg24
I94
sg25
I83
sg26
I630137
sg27
I304110
sg28
I3038702
sg29
F0.030958597538232
sg30
I1441898
sg31
F0.6581757605714545
ssS'WODRASKA JOHN'
p102
(dp103
g3
g6
sg4
g11
sg5
g6
sg7
g11
sg8
g6
sg9
I00
sg10
g11
sg12
g6
sg13
S'john.wodraska@enron.com'
p104
sg15
g6
sg16
g6
sg17
g6
sg18
g6
sg19
g6
sg20
I189583
sg21
g6
sg22
g6
sg23
g6
sg24
g6
sg25
g6
sg26
g6
sg27
g6
sg28
I189583
sg29
g11
sg30
g6
sg31
g11
ssS'BERGSIEKER RICHARD P'
p105
(dp106
g3
I383
sg4
F0.010443864229765013
sg5
g6
sg7
F0.751688
sg8
I59175
sg9
I00
sg10
g11
sg12
I-485813
sg13
S'rick.bergsieker@enron.com'
p107
sg15
I180250
sg16
g6
sg17
I233
sg18
g6
sg19
I59
sg20
I427316
sg21
g6
sg22
I250000
sg23
I659249
sg24
I4
sg25
I0
sg26
I659249
sg27
I187922
sg28
I618850
sg29
F0.0
sg30
g6
sg31
F0.4039751151329078
ssS'URQUHART JOHN A'
p108
(dp109
g3
g6
sg4
g11
sg5
g6
sg7
g11
sg8
I228656
sg9
I00
sg10
g11
sg12
I-36666
sg13
g6
sg15
g6
sg16
g6
sg17
g6
sg18
g6
sg19
g6
sg20
g6
sg21
I36666
sg22
g6
sg23
g6
sg24
g6
sg25
g6
sg26
g6
sg27
g6
sg28
I228656
sg29
g11
sg30
g6
sg31
g11
ssS'BIBI PHILIPPE A'
p110
(dp111
g3
I1607
sg4
F0.01431238332296204
sg5
g6
sg7
F0.213625
sg8
I38559
sg9
I00
sg10
F0.7949459165122768
sg12
g6
sg13
S'philippe.bibi@enron.com'
p112
sg15
I369721
sg16
g6
sg17
I1336
sg18
g6
sg19
I40
sg20
I425688
sg21
g6
sg22
I1000000
sg23
I1843816
sg24
I23
sg25
I8
sg26
I378082
sg27
I213625
sg28
I2047593
sg29
F0.2
sg30
I1465734
sg31
F0.4883783056496091
ssS'RIEKER PAULA H'
p113
(dp114
g3
I1328
sg4
F0.02635542168674699
sg5
I214678
sg7
F0.3560014285714286
sg8
I33271
sg9
I01
sg10
F0.8521804566918219
sg12
I-100000
sg13
S'paula.rieker@enron.com'
p115
sg15
g6
sg16
g6
sg17
I1258
sg18
g6
sg19
I82
sg20
I1950
sg21
g6
sg22
I700000
sg23
I1918887
sg24
I35
sg25
I48
sg26
I283649
sg27
I249201
sg28
I1099100
sg29
F0.5853658536585366
sg30
I1635238
sg31
F0.6368847238649804
ssS'WHALEY DAVID A'
p116
(dp117
g3
g6
sg4
g11
sg5
g6
sg7
g11
sg8
g6
sg9
I00
sg10
F1.0
sg12
g6
sg13
g6
sg15
g6
sg16
g6
sg17
g6
sg18
g6
sg19
g6
sg20
g6
sg21
g6
sg22
g6
sg23
I98718
sg24
g6
sg25
g6
sg26
g6
sg27
g6
sg28
g6
sg29
g11
sg30
I98718
sg31
g11
ssS'BECK SALLY W'
p118
(dp119
g3
I7315
sg4
F0.01968557758031442
sg5
g6
sg7
F0.3304714285714286
sg8
I37172
sg9
I00
sg10
g11
sg12
g6
sg13
S'sally.beck@enron.com'
p120
sg15
g6
sg16
g6
sg17
I2639
sg18
g6
sg19
I4343
sg20
I566
sg21
g6
sg22
I700000
sg23
I126027
sg24
I144
sg25
I386
sg26
I126027
sg27
I231330
sg28
I969068
sg29
F0.08887865530739121
sg30
g6
sg31
F0.7223435300721931
ssS'HAUG DAVID L'
p121
(dp122
g3
I573
sg4
F0.006980802792321117
sg5
g6
sg7
g11
sg8
I475
sg9
I00
sg10
g11
sg12
g6
sg13
S'david.haug@enron.com'
p123
sg15
g6
sg16
g6
sg17
I471
sg18
g6
sg19
I19
sg20
g6
sg21
g6
sg22
g6
sg23
I2217299
sg24
I4
sg25
I7
sg26
I2217299
sg27
g6
sg28
I475
sg29
F0.3684210526315789
sg30
g6
sg31
g11
ssS'ECHOLS JOHN B'
p124
(dp125
g3
g6
sg4
g11
sg5
g6
sg7
F0.911225
sg8
I21530
sg9
I00
sg10
F0.5961081966140735
sg12
g6
sg13
S'john.echols@enron.com'
p126
sg15
I2234774
sg16
g6
sg17
g6
sg18
g6
sg19
g6
sg20
I53775
sg21
g6
sg22
I200000
sg23
I1008941
sg24
g6
sg25
g6
sg26
I407503
sg27
I182245
sg28
I2692324
sg29
g11
sg30
I601438
sg31
F0.07428526432925606
ssS'MENDELSOHN JOHN'
p127
(dp128
g3
g6
sg4
g11
sg5
g6
sg7
g11
sg8
I148
sg9
I00
sg10
g11
sg12
I-103750
sg13
g6
sg15
g6
sg16
g6
sg17
g6
sg18
g6
sg19
g6
sg20
g6
sg21
I103750
sg22
g6
sg23
g6
sg24
g6
sg25
g6
sg26
g6
sg27
g6
sg28
I148
sg29
g11
sg30
g6
sg31
g11
ssS'HICKERSON GARY J'
p129
(dp130
g3
I1320
sg4
F0.030303030303030304
sg5
g6
sg7
F0.12458117647058824
sg8
I98849
sg9
I00
sg10
g11
sg12
g6
sg13
S'gary.hickerson@enron.com'
p131
sg15
I69223
sg16
g6
sg17
I900
sg18
g6
sg19
I27
sg20
I1936
sg21
g6
sg22
I1700000
sg23
I441096
sg24
I40
sg25
I1
sg26
I441096
sg27
I211788
sg28
I2081796
sg29
F0.037037037037037035
sg30
g6
sg31
F0.8166025873812804
ssS'CLINE KENNETH W'
p132
(dp133
g3
g6
sg4
g11
sg5
g6
sg7
g11
sg8
g6
sg9
I00
sg10
g11
sg12
g6
sg13
g6
sg15
g6
sg16
I-472568
sg17
g6
sg18
g6
sg19
g6
sg20
g6
sg21
g6
sg22
g6
sg23
I189518
sg24
g6
sg25
g6
sg26
I662086
sg27
g6
sg28
g6
sg29
g11
sg30
g6
sg31
g11
ssS'LEWIS RICHARD'
p134
(dp135
g3
I952
sg4
F0.01050420168067227
sg5
g6
sg7
g11
sg8
g6
sg9
I00
sg10
F1.0
sg12
g6
sg13
S'richard.lewis@enron.com'
p136
sg15
g6
sg16
g6
sg17
I739
sg18
g6
sg19
I26
sg20
g6
sg21
g6
sg22
g6
sg23
I850477
sg24
I10
sg25
I0
sg26
g6
sg27
g6
sg28
g6
sg29
F0.0
sg30
I850477
sg31
g11
ssS'HAYES ROBERT E'
p137
(dp138
g3
I504
sg4
F0.031746031746031744
sg5
I7961
sg7
g11
sg8
g6
sg9
I00
sg10
g11
sg12
g6
sg13
S'robert.hayes@enron.com'
p139
sg15
g6
sg16
g6
sg17
I50
sg18
g6
sg19
I12
sg20
g6
sg21
g6
sg22
g6
sg23
I151418
sg24
I16
sg25
I0
sg26
I151418
sg27
g6
sg28
I7961
sg29
F0.0
sg30
g6
sg31
g11
ssS'MCCARTY DANNY J'
p140
(dp141
g3
I1433
sg4
F0.017445917655268667
sg5
g6
sg7
g11
sg8
g6
sg9
I00
sg10
F0.8754089633971995
sg12
g6
sg13
S'danny.mccarty@enron.com'
p142
sg15
g6
sg16
g6
sg17
I508
sg18
g6
sg19
I215
sg20
g6
sg21
g6
sg22
g6
sg23
I758931
sg24
I25
sg25
I2
sg26
I94556
sg27
g6
sg28
g6
sg29
F0.009302325581395349
sg30
I664375
sg31
g11
ssS'KOPPER MICHAEL J'
p143
(dp144
g3
g6
sg4
g11
sg5
g6
sg7
F0.28038125
sg8
I118134
sg9
I01
sg10
g11
sg12
g6
sg13
S'michael.kopper@enron.com'
p145
sg15
I602671
sg16
g6
sg17
g6
sg18
g6
sg19
g6
sg20
I907502
sg21
g6
sg22
I800000
sg23
I985032
sg24
g6
sg25
g6
sg26
I985032
sg27
I224305
sg28
I2652612
sg29
g11
sg30
g6
sg31
F0.30158952760524343
ssS'LEFF DANIEL P'
p146
(dp147
g3
I2822
sg4
F0.02374202693125443
sg5
g6
sg7
F0.273746
sg8
g6
sg9
I00
sg10
g11
sg12
g6
sg13
S'dan.leff@enron.com'
p148
sg15
I1387399
sg16
g6
sg17
I2672
sg18
g6
sg19
I63
sg20
I3083
sg21
g6
sg22
I1000000
sg23
I360528
sg24
I67
sg25
I14
sg26
I360528
sg27
I273746
sg28
I2664228
sg29
F0.2222222222222222
sg30
g6
sg31
F0.3753432514034084
ssS'LAVORATO JOHN J'
p149
(dp150
g3
I7259
sg4
F0.07273729163796666
sg5
g6
sg7
F0.042411
sg8
I49537
sg9
I00
sg10
F0.80489241252034
sg12
g6
sg13
S'john.lavorato@enron.com'
p151
sg15
I2035380
sg16
g6
sg17
I3962
sg18
g6
sg19
I2585
sg20
I1552
sg21
g6
sg22
I8000000
sg23
I5167144
sg24
I528
sg25
I411
sg26
I1008149
sg27
I339288
sg28
I10425757
sg29
F0.15899419729206962
sg30
I4158995
sg31
F0.767330372269371
ssS'BERBERIAN DAVID'
p152
(dp153
g3
g6
sg4
g11
sg5
g6
sg7
g11
sg8
I11892
sg9
I00
sg10
F0.6514218708895034
sg12
g6
sg13
S'david.berberian@enron.com'
p154
sg15
g6
sg16
g6
sg17
g6
sg18
g6
sg19
g6
sg20
g6
sg21
g6
sg22
g6
sg23
I2493616
sg24
g6
sg25
g6
sg26
I869220
sg27
I216582
sg28
I228474
sg29
g11
sg30
I1624396
sg31
g11
ssS'DETMERING TIMOTHY J'
p155
(dp156
g3
g6
sg4
g11
sg5
I875307
sg7
F0.49529411764705883
sg8
I52255
sg9
I00
sg10
F1.0
sg12
I-775241
sg13
S'timothy.detmering@enron.com'
p157
sg15
I415657
sg16
I-315068
sg17
g6
sg18
g6
sg19
g6
sg20
I1105
sg21
g6
sg22
I425000
sg23
I2027865
sg24
g6
sg25
g6
sg26
I315068
sg27
I210500
sg28
I1204583
sg29
g11
sg30
I2027865
sg31
F0.3528191913716199
ssS'WAKEHAM JOHN'
p158
(dp159
g3
g6
sg4
g11
sg5
g6
sg7
g11
sg8
I103773
sg9
I00
sg10
g11
sg12
g6
sg13
g6
sg15
g6
sg16
g6
sg17
g6
sg18
g6
sg19
g6
sg20
g6
sg21
I109298
sg22
g6
sg23
g6
sg24
g6
sg25
g6
sg26
g6
sg27
g6
sg28
I213071
sg29
g11
sg30
g6
sg31
g11
ssS'POWERS WILLIAM'
p160
(dp161
g3
I653
sg4
F0.0
sg5
g6
sg7
g11
sg8
g6
sg9
I00
sg10
g11
sg12
I-17500
sg13
S'ken.powers@enron.com'
p162
sg15
g6
sg16
g6
sg17
I12
sg18
g6
sg19
I26
sg20
g6
sg21
I17500
sg22
g6
sg23
g6
sg24
I0
sg25
I0
sg26
g6
sg27
g6
sg28
g6
sg29
F0.0
sg30
g6
sg31
g11
ssS'GOLD JOSEPH'
p163
(dp164
g3
g6
sg4
g11
sg5
g6
sg7
F0.36384
sg8
g6
sg9
I00
sg10
F0.4973900737342627
sg12
g6
sg13
S'joe.gold@enron.com'
p165
sg15
I304805
sg16
g6
sg17
g6
sg18
g6
sg19
g6
sg20
I819288
sg21
g6
sg22
I750000
sg23
I877611
sg24
g6
sg25
g6
sg26
I441096
sg27
I272880
sg28
I2146973
sg29
g11
sg30
I436515
sg31
F0.34932903208377564
ssS'BANNANTINE JAMES M'
p166
(dp167
g3
I566
sg4
F0.06890459363957598
sg5
g6
sg7
g11
sg8
I56301
sg9
I00
sg10
F0.7716538631639595
sg12
I-5104
sg13
S'james.bannantine@enron.com'
p168
sg15
g6
sg16
I-560222
sg17
I465
sg18
g6
sg19
I29
sg20
I864523
sg21
g6
sg22
g6
sg23
I5243487
sg24
I39
sg25
I0
sg26
I1757552
sg27
I477
sg28
I916197
sg29
F0.0
sg30
I4046157
sg31
g11
ssS'DUNCAN JOHN H'
p169
(dp170
g3
g6
sg4
g11
sg5
g6
sg7
g11
sg8
g6
sg9
I00
sg10
F1.0
sg12
I-25000
sg13
g6
sg15
g6
sg16
g6
sg17
g6
sg18
g6
sg19
g6
sg20
g6
sg21
I102492
sg22
g6
sg23
I371750
sg24
g6
sg25
g6
sg26
g6
sg27
g6
sg28
I77492
sg29
g11
sg30
I371750
sg31
g11
ssS'SHAPIRO RICHARD S'
p171
(dp172
g3
I15149
sg4
F0.0048848108786058485
sg5
g6
sg7
F0.41396307692307693
sg8
I137767
sg9
I00
sg10
F0.6158423345062467
sg12
g6
sg13
S'richard.shapiro@enron.com'
p173
sg15
g6
sg16
g6
sg17
I4527
sg18
g6
sg19
I1215
sg20
I705
sg21
g6
sg22
I650000
sg23
I987001
sg24
I74
sg25
I65
sg26
I379164
sg27
I269076
sg28
I1057548
sg29
F0.053497942386831275
sg30
I607837
sg31
F0.6146293123338137
ssS'SHERRIFF JOHN R'
p174
(dp175
g3
I3187
sg4
F0.008785691873235017
sg5
g6
sg7
F0.28585333333333335
sg8
g6
sg9
I00
sg10
F0.5866310512492562
sg12
g6
sg13
S'john.sherriff@enron.com'
p176
sg15
I554422
sg16
g6
sg17
I2103
sg18
g6
sg19
I92
sg20
I1852186
sg21
g6
sg22
I1500000
sg23
I3128982
sg24
I28
sg25
I23
sg26
I1293424
sg27
I428780
sg28
I4335388
sg29
F0.25
sg30
I1835558
sg31
F0.34598979376240374
ssS'SHELBY REX'
p177
(dp178
g3
I225
sg4
F0.057777777777777775
sg5
g6
sg7
F1.05922
sg8
I22884
sg9
I01
sg10
F0.6514218708895034
sg12
I-4167
sg13
S'rex.shelby@enron.com'
p179
sg15
g6
sg16
g6
sg17
I91
sg18
g6
sg19
I39
sg20
I1573324
sg21
g6
sg22
I200000
sg23
I2493616
sg24
I13
sg25
I14
sg26
I869220
sg27
I211844
sg28
I2003885
sg29
F0.358974358974359
sg30
I1624396
sg31
F0.09980612659908128
ssS'LEMAISTRE CHARLES'
p180
(dp181
g3
g6
sg4
g11
sg5
g6
sg7
g11
sg8
g6
sg9
I00
sg10
F1.0
sg12
I-25000
sg13
g6
sg15
g6
sg16
g6
sg17
g6
sg18
g6
sg19
g6
sg20
g6
sg21
I112492
sg22
g6
sg23
I412878
sg24
g6
sg25
g6
sg26
g6
sg27
g6
sg28
I87492
sg29
g11
sg30
I412878
sg31
g11
ssS'DEFFNER JOSEPH M'
p182
(dp183
g3
I714
sg4
F0.16106442577030813
sg5
g6
sg7
F0.343535
sg8
I41626
sg9
I00
sg10
F0.10915074963413332
sg12
g6
sg13
S'joseph.deffner@enron.com'
p184
sg15
I335349
sg16
g6
sg17
I552
sg18
g6
sg19
I74
sg20
I25553
sg21
g6
sg22
I600000
sg23
I159211
sg24
I115
sg25
I4
sg26
I141833
sg27
I206121
sg28
I1208649
sg29
F0.05405405405405406
sg30
I17378
sg31
F0.49642203815996205
ssS'KISHKILL JOSEPH G'
p185
(dp186
g3
g6
sg4
g11
sg5
g6
sg7
g11
sg8
I116335
sg9
I00
sg10
g11
sg12
I-51042
sg13
S'joe.kishkill@enron.com'
p187
sg15
g6
sg16
g6
sg17
g6
sg18
g6
sg19
g6
sg20
I465357
sg21
g6
sg22
g6
sg23
I1034346
sg24
g6
sg25
g6
sg26
I1034346
sg27
I174246
sg28
I704896
sg29
g11
sg30
g6
sg31
g11
ssS'WHALLEY LAWRENCE G'
p188
(dp189
g3
I6019
sg4
F0.03090214321315833
sg5
g6
sg7
F0.17012133333333335
sg8
I57838
sg9
I00
sg10
F0.5400371796194098
sg12
g6
sg13
S'greg.whalley@enron.com'
p190
sg15
I808346
sg16
g6
sg17
I3920
sg18
g6
sg19
I556
sg20
I301026
sg21
g6
sg22
I3000000
sg23
I6079137
sg24
I186
sg25
I24
sg26
I2796177
sg27
I510364
sg28
I4677574
sg29
F0.04316546762589928
sg30
I3282960
sg31
F0.6413581057189047
ssS'MCCONNELL MICHAEL S'
p191
(dp192
g3
I3329
sg4
F0.02763592670471613
sg5
g6
sg7
F0.3318527272727273
sg8
I81364
sg9
I00
sg10
F0.5233356947246603
sg12
g6
sg13
S'mike.mcconnell@enron.com'
p193
sg15
I554422
sg16
g6
sg17
I2189
sg18
g6
sg19
I2742
sg20
I540
sg21
g6
sg22
I1100000
sg23
I3101279
sg24
I92
sg25
I194
sg26
I1478269
sg27
I365038
sg28
I2101364
sg29
F0.07075127644055434
sg30
I1623010
sg31
F0.5234695178940917
ssS'PIRO JIM'
p194
(dp195
g3
I58
sg4
F0.0
sg5
g6
sg7
g11
sg8
g6
sg9
I00
sg10
g11
sg12
g6
sg13
S'jim.piro@enron.com'
p196
sg15
g6
sg16
g6
sg17
I3
sg18
g6
sg19
I16
sg20
g6
sg21
g6
sg22
g6
sg23
I47304
sg24
I0
sg25
I1
sg26
I47304
sg27
g6
sg28
g6
sg29
F0.0625
sg30
g6
sg31
g11
ssS'DELAINEY DAVID W'
p197
(dp198
g3
I3093
sg4
F0.02133850630455868
sg5
g6
sg7
F0.121721
sg8
I86174
sg9
I01
sg10
F0.6339091172441614
sg12
g6
sg13
S'david.delainey@enron.com'
p199
sg15
I1294981
sg16
g6
sg17
I2097
sg18
g6
sg19
I3069
sg20
I1661
sg21
g6
sg22
I3000000
sg23
I3614261
sg24
I66
sg25
I609
sg26
I1323148
sg27
I365163
sg28
I4747979
sg29
F0.198435972629521
sg30
I2291113
sg31
F0.6318477819720769
ssS'SULLIVAN-SHAKLOVITZ COLLEEN'
p200
(dp201
g3
g6
sg4
g11
sg5
I181993
sg7
F1.62779
sg8
g6
sg9
I00
sg10
F1.0
sg12
g6
sg13
g6
sg15
I554422
sg16
g6
sg17
g6
sg18
g6
sg19
g6
sg20
I162
sg21
g6
sg22
I100000
sg23
I1362375
sg24
g6
sg25
g6
sg26
g6
sg27
I162779
sg28
I999356
sg29
g11
sg30
I1362375
sg31
F0.10006444150032621
ssS'WROBEL BRUCE'
p202
(dp203
g3
g6
sg4
g11
sg5
g6
sg7
g11
sg8
g6
sg9
I00
sg10
F1.0
sg12
g6
sg13
g6
sg15
g6
sg16
g6
sg17
g6
sg18
g6
sg19
g6
sg20
g6
sg21
g6
sg22
g6
sg23
I139130
sg24
g6
sg25
g6
sg26
g6
sg27
g6
sg28
g6
sg29
g11
sg30
I139130
sg31
g11
ssS'LINDHOLM TOD A'
p204
(dp205
g3
g6
sg4
g11
sg5
I204075
sg7
F1.182285
sg8
I57727
sg9
I00
sg10
F0.8319804008083003
sg12
g6
sg13
S'tod.lindholm@enron.com'
p206
sg15
I175000
sg16
g6
sg17
g6
sg18
g6
sg19
g6
sg20
I2630
sg21
g6
sg22
I200000
sg23
I3064208
sg24
g6
sg25
g6
sg26
I514847
sg27
I236457
sg28
I875889
sg29
g11
sg30
I2549361
sg31
F0.22833943570475254
ssS'MEYER JEROME J'
p207
(dp208
g3
g6
sg4
g11
sg5
g6
sg7
g11
sg8
I2151
sg9
I00
sg10
g11
sg12
I-38346
sg13
g6
sg15
g6
sg16
g6
sg17
g6
sg18
g6
sg19
g6
sg20
g6
sg21
I38346
sg22
g6
sg23
g6
sg24
g6
sg25
g6
sg26
g6
sg27
g6
sg28
I2151
sg29
g11
sg30
g6
sg31
g11
ssS'LAY KENNETH L'
p209
(dp210
g3
I4273
sg4
F0.028785396676807865
sg5
I202911
sg7
F0.1531887142857143
sg8
I99832
sg9
I01
sg10
F0.6994161972212709
sg12
I-300000
sg13
S'kenneth.lay@enron.com'
p211
sg15
I3600000
sg16
g6
sg17
I2411
sg18
I81525000
sg19
I36
sg20
I10359729
sg21
g6
sg22
I7000000
sg23
I49110078
sg24
I123
sg25
I16
sg26
I14761694
sg27
I1072321
sg28
I103559793
sg29
F0.4444444444444444
sg30
I34348384
sg31
F0.06759380061719514
ssS'BUTTS ROBERT H'
p212
(dp213
g3
g6
sg4
g11
sg5
g6
sg7
F0.348688
sg8
I9410
sg9
I00
sg10
g11
sg12
I-75000
sg13
S'bob.butts@enron.com'
p214
sg15
I175000
sg16
g6
sg17
g6
sg18
g6
sg19
g6
sg20
I150656
sg21
g6
sg22
I750000
sg23
I417619
sg24
g6
sg25
g6
sg26
I417619
sg27
I261516
sg28
I1271582
sg29
g11
sg30
g6
sg31
F0.5898164648445794
ssS'OLSON CINDY K'
p215
(dp216
g3
I1184
sg4
F0.016891891891891893
sg5
I77716
sg7
F0.43877066666666664
sg8
I63791
sg9
I00
sg10
F0.6279949500587511
sg12
g6
sg13
S'cindy.olson@enron.com'
p217
sg15
I100000
sg16
g6
sg17
I856
sg18
g6
sg19
I52
sg20
I972
sg21
g6
sg22
I750000
sg23
I2606763
sg24
I20
sg25
I15
sg26
I969729
sg27
I329078
sg28
I1321557
sg29
F0.28846153846153844
sg30
I1637034
sg31
F0.5675124114964394
ssS'MCDONALD REBECCA'
p218
(dp219
g3
I894
sg4
F0.06040268456375839
sg5
g6
sg7
g11
sg8
g6
sg9
I00
sg10
F0.4477451953036776
sg12
g6
sg13
S'rebecca.mcdonald@enron.com'
p220
sg15
g6
sg16
g6
sg17
I720
sg18
g6
sg19
I13
sg20
g6
sg21
g6
sg22
g6
sg23
I1691366
sg24
I54
sg25
I1
sg26
I934065
sg27
g6
sg28
g6
sg29
F0.07692307692307693
sg30
I757301
sg31
g11
ssS'CUMBERLAND MICHAEL S'
p221
(dp222
g3
g6
sg4
g11
sg5
g6
sg7
F0.56892
sg8
I22344
sg9
I00
sg10
g11
sg12
g6
sg13
g6
sg15
I275000
sg16
g6
sg17
g6
sg18
g6
sg19
g6
sg20
I713
sg21
g6
sg22
I325000
sg23
I207940
sg24
g6
sg25
g6
sg26
I207940
sg27
I184899
sg28
I807956
sg29
g11
sg30
g6
sg31
F0.4022496274549604
ssS'GAHN ROBERT S'
p223
(dp224
g3
g6
sg4
g11
sg5
I73122
sg7
F0.3765822660678212
sg8
I50080
sg9
I00
sg10
F0.2612528914932817
sg12
I-1042
sg13
g6
sg15
g6
sg16
g6
sg17
g6
sg18
g6
sg19
g6
sg20
I76547
sg21
g6
sg22
I509870
sg23
I318607
sg24
g6
sg25
g6
sg26
I235370
sg27
I192008
sg28
I900585
sg29
g11
sg30
I83237
sg31
F0.5661542219779365
ssS'MCCLELLAN GEORGE'
p225
(dp226
g3
I1744
sg4
F0.02981651376146789
sg5
g6
sg7
F0.2926811111111111
sg8
I228763
sg9
I00
sg10
F0.534640627686971
sg12
I-125000
sg13
S'george.mcclellan@enron.com'
p227
sg15
g6
sg16
g6
sg17
I1469
sg18
g6
sg19
I49
sg20
I51587
sg21
g6
sg22
I900000
sg23
I947861
sg24
I52
sg25
I0
sg26
I441096
sg27
I263413
sg28
I1318763
sg29
F0.0
sg30
I506765
sg31
F0.6824577274309334
ssS'HERMANN ROBERT J'
p228
(dp229
g3
g6
sg4
g11
sg5
g6
sg7
F0.37523285714285715
sg8
I48357
sg9
I00
sg10
F0.2806331682960852
sg12
I-280000
sg13
S'robert.hermann@enron.com'
p230
sg15
I150000
sg16
g6
sg17
g6
sg18
g6
sg19
g6
sg20
I416441
sg21
g6
sg22
I700000
sg23
I668132
sg24
g6
sg25
g6
sg26
I480632
sg27
I262663
sg28
I1297461
sg29
g11
sg30
I187500
sg31
F0.5395152532523135
ssS'SCRIMSHAW MATTHEW'
p231
(dp232
g3
g6
sg4
g11
sg5
g6
sg7
g11
sg8
g6
sg9
I00
sg10
F1.0
sg12
g6
sg13
S'matthew.scrimshaw@enron.com'
p233
sg15
g6
sg16
g6
sg17
g6
sg18
g6
sg19
g6
sg20
g6
sg21
g6
sg22
g6
sg23
I759557
sg24
g6
sg25
g6
sg26
g6
sg27
g6
sg28
g6
sg29
g11
sg30
I759557
sg31
g11
ssS'GATHMANN WILLIAM D'
p234
(dp235
g3
g6
sg4
g11
sg5
g6
sg7
g11
sg8
g6
sg9
I00
sg10
F0.9015123164864087
sg12
g6
sg13
g6
sg15
g6
sg16
I-72419
sg17
g6
sg18
g6
sg19
g6
sg20
g6
sg21
g6
sg22
g6
sg23
I1945360
sg24
g6
sg25
g6
sg26
I264013
sg27
g6
sg28
g6
sg29
g11
sg30
I1753766
sg31
g11
ssS'HAEDICKE MARK E'
p236
(dp237
g3
I4009
sg4
F0.04489897730107259
sg5
I2157527
sg7
F0.32532608695652177
sg8
I76169
sg9
I00
sg10
F0.7580059121348186
sg12
I-934484
sg13
S'mark.haedicke@enron.com'
p238
sg15
I983346
sg16
I-329825
sg17
I1847
sg18
g6
sg19
I1941
sg20
I52382
sg21
g6
sg22
I1150000
sg23
I803094
sg24
I180
sg25
I61
sg26
I524169
sg27
I374125
sg28
I3859065
sg29
F0.03142709943328181
sg30
I608750
sg31
F0.29799964499172726
ssS'BOWEN JR RAYMOND M'
p239
(dp240
g3
I1858
sg4
F0.07534983853606028
sg5
g6
sg7
F0.20637111111111112
sg8
I65907
sg9
I01
sg10
g11
sg12
I-833
sg13
S'raymond.bowen@enron.com'
p241
sg15
I974293
sg16
g6
sg17
I1593
sg18
g6
sg19
I27
sg20
I1621
sg21
g6
sg22
I1350000
sg23
I252055
sg24
I140
sg25
I15
sg26
I252055
sg27
I278601
sg28
I2669589
sg29
F0.5555555555555556
sg30
g6
sg31
F0.5056958205926081
ssS'GILLIS JOHN'
p242
(dp243
g3
g6
sg4
g11
sg5
g6
sg7
g11
sg8
g6
sg9
I00
sg10
F0.11446620193598861
sg12
g6
sg13
g6
sg15
g6
sg16
g6
sg17
g6
sg18
g6
sg19
g6
sg20
g6
sg21
g6
sg22
g6
sg23
I85641
sg24
g6
sg25
g6
sg26
I75838
sg27
g6
sg28
g6
sg29
g11
sg30
I9803
sg31
g11
ssS'FITZGERALD JAY L'
p244
(dp245
g3
I936
sg4
F0.0010683760683760685
sg5
g6
sg7
F0.56902
sg8
I23870
sg9
I00
sg10
F0.40984841195236227
sg12
g6
sg13
S'jay.fitzgerald@enron.com'
p246
sg15
I556416
sg16
g6
sg17
I723
sg18
g6
sg19
I16
sg20
I285414
sg21
g6
sg22
I350000
sg23
I1621236
sg24
I1
sg25
I8
sg26
I956775
sg27
I199157
sg28
I1414857
sg29
F0.5
sg30
I664461
sg31
F0.24737482303865338
ssS'MORAN MICHAEL P'
p247
(dp248
g3
I672
sg4
F0.0
sg5
g6
sg7
g11
sg8
g6
sg9
I00
sg10
F0.2692354651557151
sg12
g6
sg13
S'michael.moran@enron.com'
p249
sg15
g6
sg16
g6
sg17
I127
sg18
g6
sg19
I19
sg20
g6
sg21
g6
sg22
g6
sg23
I221141
sg24
I0
sg25
I0
sg26
I161602
sg27
g6
sg28
g6
sg29
F0.0
sg30
I59539
sg31
g11
ssS'REDMOND BRIAN L'
p250
(dp251
g3
I1671
sg4
F0.12208258527827648
sg5
g6
sg7
g11
sg8
I14689
sg9
I00
sg10
F0.951676889314051
sg12
g6
sg13
S'brian.redmond@enron.com'
p252
sg15
g6
sg16
g6
sg17
I1063
sg18
g6
sg19
I221
sg20
g6
sg21
g6
sg22
g6
sg23
I7890324
sg24
I204
sg25
I49
sg26
I381285
sg27
I96840
sg28
I111529
sg29
F0.22171945701357465
sg30
I7509039
sg31
g11
ssS'BAZELIDES PHILIP J'
p253
(dp254
g3
g6
sg4
g11
sg5
I684694
sg7
g11
sg8
g6
sg9
I00
sg10
F1.0
sg12
g6
sg13
g6
sg15
I93750
sg16
g6
sg17
g6
sg18
g6
sg19
g6
sg20
I874
sg21
g6
sg22
g6
sg23
I1599641
sg24
g6
sg25
g6
sg26
g6
sg27
I80818
sg28
I860136
sg29
g11
sg30
I1599641
sg31
g11
ssS'BELDEN TIMOTHY N'
p255
(dp256
g3
I7991
sg4
F0.028532098610937303
sg5
I2144013
sg7
F0.04076172204985182
sg8
I17355
sg9
I01
sg10
F0.8581360487258093
sg12
I-2334434
sg13
S'tim.belden@enron.com'
p257
sg15
g6
sg16
g6
sg17
I5521
sg18
g6
sg19
I484
sg20
I210698
sg21
g6
sg22
I5249999
sg23
I1110705
sg24
I228
sg25
I108
sg26
I157569
sg27
I213999
sg28
I5501630
sg29
F0.2231404958677686
sg30
I953136
sg31
F0.9542624640333864
ssS'DURAN WILLIAM D'
p258
(dp259
g3
I904
sg4
F0.1172566371681416
sg5
g6
sg7
F0.28092266666666665
sg8
I25785
sg9
I00
sg10
F0.8847950222742259
sg12
g6
sg13
S'w.duran@enron.com'
p260
sg15
I1105218
sg16
g6
sg17
I599
sg18
g6
sg19
I12
sg20
I1568
sg21
g6
sg22
I750000
sg23
I1640910
sg24
I106
sg25
I3
sg26
I189041
sg27
I210692
sg28
I2093263
sg29
F0.25
sg30
I1451869
sg31
F0.3582922929416896
ssS'THORN TERENCE H'
p261
(dp262
g3
I266
sg4
F0.0
sg5
I16586
sg7
g11
sg8
I46145
sg9
I00
sg10
F0.9241727960254025
sg12
g6
sg13
S'terence.thorn@enron.com'
p263
sg15
I200000
sg16
g6
sg17
I73
sg18
g6
sg19
I41
sg20
I426629
sg21
g6
sg22
g6
sg23
I4817796
sg24
I0
sg25
I0
sg26
I365320
sg27
I222093
sg28
I911453
sg29
F0.0
sg30
I4452476
sg31
g11
ssS'FASTOW ANDREW S'
p264
(dp265
g3
g6
sg4
g11
sg5
g6
sg7
F0.3389984615384615
sg8
I55921
sg9
I01
sg10
g11
sg12
I-1386055
sg13
S'andrew.fastow@enron.com'
p266
sg15
I1736055
sg16
g6
sg17
g6
sg18
g6
sg19
g6
sg20
I277464
sg21
g6
sg22
I1300000
sg23
I1794412
sg24
g6
sg25
g6
sg26
I1794412
sg27
I440698
sg28
I2424083
sg29
g11
sg30
g6
sg31
F0.5362852674599013
ssS'FOY JOE'
p267
(dp268
g3
I57
sg4
F0.0
sg5
I181755
sg7
g11
sg8
g6
sg9
I00
sg10
F1.0
sg12
g6
sg13
S'tracy.foy@enron.com'
p269
sg15
g6
sg16
g6
sg17
I2
sg18
g6
sg19
I13
sg20
g6
sg21
g6
sg22
g6
sg23
I343434
sg24
I0
sg25
I0
sg26
g6
sg27
g6
sg28
I181755
sg29
F0.0
sg30
I343434
sg31
g11
ssS'CALGER CHRISTOPHER F'
p270
(dp271
g3
I2598
sg4
F0.07659738260200154
sg5
g6
sg7
F0.1921512
sg8
I35818
sg9
I01
sg10
g11
sg12
I-262500
sg13
S'christopher.calger@enron.com'
p272
sg15
I375304
sg16
g6
sg17
I2188
sg18
g6
sg19
I144
sg20
I486
sg21
g6
sg22
I1250000
sg23
I126027
sg24
I199
sg25
I25
sg26
I126027
sg27
I240189
sg28
I1639297
sg29
F0.1736111111111111
sg30
g6
sg31
F0.7625219835087845
ssS'RICE KENNETH D'
p273
(dp274
g3
I905
sg4
F0.04640883977900553
sg5
g6
sg7
F0.24036342857142856
sg8
I46950
sg9
I01
sg10
F0.8780809916753388
sg12
I-3504386
sg13
S'ken.rice@enron.com'
p275
sg15
I1617011
sg16
g6
sg17
I864
sg18
g6
sg19
I18
sg20
I174839
sg21
g6
sg22
I1750000
sg23
I22542539
sg24
I42
sg25
I4
sg26
I2748364
sg27
I420636
sg28
I505050
sg29
F0.2222222222222222
sg30
I19794175
sg31
F3.465003465003465
ssS'KAMINSKI WINCENTY J'
p276
(dp277
g3
I4607
sg4
F0.008899500759713479
sg5
g6
sg7
F0.6877525
sg8
I83585
sg9
I00
sg10
F0.8708788703706929
sg12
g6
sg13
S'vince.kaminski@enron.com'
p278
sg15
I323466
sg16
g6
sg17
I583
sg18
g6
sg19
I14368
sg20
I4669
sg21
g6
sg22
I400000
sg23
I976037
sg24
I41
sg25
I171
sg26
I126027
sg27
I275101
sg28
I1086821
sg29
F0.011901447661469933
sg30
I850010
sg31
F0.368045887961311
ssS'LOCKHART EUGENE E'
p279
(dp280
g3
g6
sg4
g11
sg5
g6
sg7
g11
sg8
g6
sg9
I00
sg10
g11
sg12
g6
sg13
g6
sg15
g6
sg16
g6
sg17
g6
sg18
g6
sg19
g6
sg20
g6
sg21
g6
sg22
g6
sg23
g6
sg24
g6
sg25
g6
sg26
g6
sg27
g6
sg28
g6
sg29
g11
sg30
g6
sg31
g11
ssS'COX DAVID'
p281
(dp282
g3
I102
sg4
F0.0
sg5
g6
sg7
F0.39286
sg8
I27861
sg9
I00
sg10
F0.23717347311417925
sg12
I-41250
sg13
S'chip.cox@enron.com'
p283
sg15
g6
sg16
g6
sg17
I71
sg18
g6
sg19
I33
sg20
I494
sg21
g6
sg22
I800000
sg23
I495633
sg24
I0
sg25
I4
sg26
I378082
sg27
I314288
sg28
I1101393
sg29
F0.12121212121212122
sg30
I117551
sg31
F0.7263529003725282
ssS'OVERDYKE JR JERE C'
p284
(dp285
g3
g6
sg4
g11
sg5
g6
sg7
g11
sg8
I18834
sg9
I00
sg10
F0.7206993163550137
sg12
g6
sg13
S'jere.overdyke@enron.com'
p286
sg15
I135836
sg16
g6
sg17
g6
sg18
g6
sg19
g6
sg20
I176
sg21
g6
sg22
g6
sg23
I7307594
sg24
g6
sg25
g6
sg26
I2041016
sg27
I94941
sg28
I249787
sg29
g11
sg30
I5266578
sg31
g11
ssS'PEREIRA PAULO V. FERRAZ'
p287
(dp288
g3
g6
sg4
g11
sg5
g6
sg7
g11
sg8
I27942
sg9
I00
sg10
g11
sg12
I-101250
sg13
g6
sg15
g6
sg16
g6
sg17
g6
sg18
g6
sg19
g6
sg20
g6
sg21
I101250
sg22
g6
sg23
g6
sg24
g6
sg25
g6
sg26
g6
sg27
g6
sg28
I27942
sg29
g11
sg30
g6
sg31
g11
ssS'STABLER FRANK'
p289
(dp290
g3
g6
sg4
g11
sg5
g6
sg7
F0.479004
sg8
I16514
sg9
I00
sg10
g11
sg12
g6
sg13
S'frank.stabler@enron.com'
p291
sg15
g6
sg16
g6
sg17
g6
sg18
g6
sg19
g6
sg20
I356071
sg21
g6
sg22
I500000
sg23
I511734
sg24
g6
sg25
g6
sg26
I511734
sg27
I239502
sg28
I1112087
sg29
g11
sg30
g6
sg31
F0.44960511183027946
ssS'SKILLING JEFFREY K'
p292
(dp293
g3
I3627
sg4
F0.0242624758753791
sg5
g6
sg7
F0.19843892857142856
sg8
I29336
sg9
I01
sg10
F0.7377267561269261
sg12
g6
sg13
S'jeff.skilling@enron.com'
p294
sg15
I1920000
sg16
g6
sg17
I2042
sg18
g6
sg19
I108
sg20
I22122
sg21
g6
sg22
I5600000
sg23
I26093672
sg24
I88
sg25
I30
sg26
I6843672
sg27
I1111258
sg28
I8682716
sg29
F0.2777777777777778
sg30
I19250000
sg31
F0.6449594804206426
ssS'BLAKE JR. NORMAN P'
p295
(dp296
g3
g6
sg4
g11
sg5
g6
sg7
g11
sg8
I1279
sg9
I00
sg10
g11
sg12
I-113784
sg13
g6
sg15
g6
sg16
g6
sg17
g6
sg18
g6
sg19
g6
sg20
g6
sg21
I113784
sg22
g6
sg23
g6
sg24
g6
sg25
g6
sg26
g6
sg27
g6
sg28
I1279
sg29
g11
sg30
g6
sg31
g11
ssS'SHERRICK JEFFREY B'
p297
(dp298
g3
I613
sg4
F0.0636215334420881
sg5
g6
sg7
g11
sg8
g6
sg9
I00
sg10
F0.7784414243522942
sg12
g6
sg13
S'jeffrey.sherrick@enron.com'
p299
sg15
g6
sg16
g6
sg17
I583
sg18
g6
sg19
I25
sg20
g6
sg21
g6
sg22
g6
sg23
I1832468
sg24
I39
sg25
I18
sg26
I405999
sg27
g6
sg28
g6
sg29
F0.72
sg30
I1426469
sg31
g11
ssS'PRENTICE JAMES'
p300
(dp301
g3
g6
sg4
g11
sg5
I564348
sg7
g11
sg8
g6
sg9
I00
sg10
F0.8093138150204559
sg12
g6
sg13
S'james.prentice@enron.com'
p302
sg15
g6
sg16
g6
sg17
g6
sg18
g6
sg19
g6
sg20
g6
sg21
g6
sg22
g6
sg23
I1095040
sg24
g6
sg25
g6
sg26
I208809
sg27
g6
sg28
I564348
sg29
g11
sg30
I886231
sg31
g11
ssS'GRAY RODNEY'
p303
(dp304
g3
g6
sg4
g11
sg5
I93585
sg7
g11
sg8
g6
sg9
I00
sg10
g11
sg12
g6
sg13
g6
sg15
I365625
sg16
g6
sg17
g6
sg18
g6
sg19
g6
sg20
I680833
sg21
g6
sg22
g6
sg23
g6
sg24
g6
sg25
g6
sg26
g6
sg27
I6615
sg28
I1146658
sg29
g11
sg30
g6
sg31
g11
ssS'PICKERING MARK R'
p305
(dp306
g3
I898
sg4
F0.0077951002227171495
sg5
g6
sg7
F2.183456666666667
sg8
I31653
sg9
I00
sg10
F1.0
sg12
g6
sg13
S'mark.pickering@enron.com'
p307
sg15
g6
sg16
g6
sg17
I728
sg18
I400000
sg19
I67
sg20
g6
sg21
g6
sg22
I300000
sg23
I28798
sg24
I7
sg25
I0
sg26
g6
sg27
I655037
sg28
I1386690
sg29
F0.0
sg30
I28798
sg31
F0.21634251346732147
ssS'NOLES JAMES L'
p308
(dp309
g3
g6
sg4
g11
sg5
I774401
sg7
g11
sg8
g6
sg9
I00
sg10
g11
sg12
g6
sg13
g6
sg15
g6
sg16
I-94556
sg17
g6
sg18
g6
sg19
g6
sg20
g6
sg21
g6
sg22
g6
sg23
I368705
sg24
g6
sg25
g6
sg26
I463261
sg27
g6
sg28
I774401
sg29
g11
sg30
g6
sg31
g11
ssS'KEAN STEVEN J'
p310
(dp311
g3
I12754
sg4
F0.010976948408342482
sg5
g6
sg7
F0.404338
sg8
I41953
sg9
I00
sg10
F0.32859370109603386
sg12
g6
sg13
S'steven.kean@enron.com'
p312
sg15
I300000
sg16
g6
sg17
I3639
sg18
g6
sg19
I6759
sg20
I1231
sg21
g6
sg22
I1000000
sg23
I6153642
sg24
I140
sg25
I387
sg26
I4131594
sg27
I404338
sg28
I1747522
sg29
F0.05725699067909454
sg30
I2022048
sg31
F0.5722388616566773
ssS'FOWLER PEGGY'
p313
(dp314
g3
I517
sg4
F0.0
sg5
g6
sg7
g11
sg8
g6
sg9
I00
sg10
F0.7027878528057863
sg12
g6
sg13
S'kulvinder.fowler@enron.com'
p315
sg15
g6
sg16
g6
sg17
I10
sg18
g6
sg19
I36
sg20
g6
sg21
g6
sg22
g6
sg23
I1884748
sg24
I0
sg25
I0
sg26
I560170
sg27
g6
sg28
g6
sg29
F0.0
sg30
I1324578
sg31
g11
ssS'WASAFF GEORGE'
p316
(dp317
g3
I400
sg4
F0.055
sg5
I831299
sg7
F0.7999876923076923
sg8
g6
sg9
I00
sg10
F0.8112420231790382
sg12
I-583325
sg13
S'george.wasaff@enron.com'
p318
sg15
I200000
sg16
g6
sg17
I337
sg18
g6
sg19
I30
sg20
I1425
sg21
g6
sg22
I325000
sg23
I2056427
sg24
I22
sg25
I7
sg26
I388167
sg27
I259996
sg28
I1034395
sg29
F0.23333333333333334
sg30
I1668260
sg31
F0.3141933207333755
ssS'WHITE JR THOMAS E'
p319
(dp320
g3
g6
sg4
g11
sg5
g6
sg7
F0.7056511111111111
sg8
I81353
sg9
I00
sg10
F0.08564701963923563
sg12
g6
sg13
S'thomas.white@enron.com'
p321
sg15
g6
sg16
g6
sg17
g6
sg18
g6
sg19
g6
sg20
I1085463
sg21
g6
sg22
I450000
sg23
I15144123
sg24
g6
sg25
g6
sg26
I13847074
sg27
I317543
sg28
I1934359
sg29
g11
sg30
I1297049
sg31
F0.23263520370313887
ssS'CHRISTODOULOU DIOMEDES'
p322
(dp323
g3
g6
sg4
g11
sg5
g6
sg7
g11
sg8
g6
sg9
I00
sg10
F0.8435755201027989
sg12
g6
sg13
S'diomedes.christodoulou@enron.com'
p324
sg15
g6
sg16
g6
sg17
g6
sg18
g6
sg19
g6
sg20
g6
sg21
g6
sg22
g6
sg23
I6077885
sg24
g6
sg25
g6
sg26
I950730
sg27
g6
sg28
g6
sg29
g11
sg30
I5127155
sg31
g11
ssS'ALLEN PHILLIP K'
p325
(dp326
g3
I2902
sg4
F0.016195727084769126
sg5
I2869717
sg7
F0.04837245508982036
sg8
I13868
sg9
I00
sg10
F1.0
sg12
I-3081055
sg13
S'phillip.allen@enron.com'
p327
sg15
I304805
sg16
I-126027
sg17
I1407
sg18
g6
sg19
I2195
sg20
I152
sg21
g6
sg22
I4175000
sg23
I1729541
sg24
I47
sg25
I65
sg26
I126027
sg27
I201955
sg28
I4484442
sg29
F0.029612756264236904
sg30
I1729541
sg31
F0.9309965431596617
ssS'SHARP VICTORIA T'
p328
(dp329
g3
I3136
sg4
F0.007653061224489796
sg5
I187469
sg7
F0.41357666666666665
sg8
I116337
sg9
I00
sg10
F0.5688170867939191
sg12
g6
sg13
S'vicki.sharp@enron.com'
p330
sg15
I422158
sg16
g6
sg17
I2477
sg18
g6
sg19
I136
sg20
I2401
sg21
g6
sg22
I600000
sg23
I494136
sg24
I24
sg25
I6
sg26
I213063
sg27
I248146
sg28
I1576511
sg29
F0.04411764705882353
sg30
I281073
sg31
F0.38058725882661143
ssS'JAEDICKE ROBERT'
p331
(dp332
g3
g6
sg4
g11
sg5
g6
sg7
g11
sg8
g6
sg9
I00
sg10
F1.0
sg12
I-25000
sg13
g6
sg15
g6
sg16
I-44093
sg17
g6
sg18
g6
sg19
g6
sg20
g6
sg21
I108750
sg22
g6
sg23
I431750
sg24
g6
sg25
g6
sg26
I44093
sg27
g6
sg28
I83750
sg29
g11
sg30
I431750
sg31
g11
ssS'WINOKUR JR. HERBERT S'
p333
(dp334
g3
g6
sg4
g11
sg5
g6
sg7
g11
sg8
I1413
sg9
I00
sg10
g11
sg12
I-25000
sg13
g6
sg15
g6
sg16
g6
sg17
g6
sg18
g6
sg19
g6
sg20
g6
sg21
I108579
sg22
g6
sg23
g6
sg24
g6
sg25
g6
sg26
g6
sg27
g6
sg28
I84992
sg29
g11
sg30
g6
sg31
g11
ssS'BROWN MICHAEL'
p335
(dp336
g3
I1486
sg4
F0.008748317631224764
sg5
g6
sg7
g11
sg8
I49288
sg9
I00
sg10
g11
sg12
g6
sg13
S'michael.brown@enron.com'
p337
sg15
g6
sg16
g6
sg17
I761
sg18
g6
sg19
I41
sg20
g6
sg21
g6
sg22
g6
sg23
g6
sg24
I13
sg25
I1
sg26
g6
sg27
g6
sg28
I49288
sg29
F0.024390243902439025
sg30
g6
sg31
g11
ssS'BADUM JAMES P'
p338
(dp339
g3
g6
sg4
g11
sg5
I178980
sg7
g11
sg8
I3486
sg9
I00
sg10
F1.0
sg12
g6
sg13
g6
sg15
g6
sg16
g6
sg17
g6
sg18
g6
sg19
g6
sg20
g6
sg21
g6
sg22
g6
sg23
I257817
sg24
g6
sg25
g6
sg26
g6
sg27
g6
sg28
I182466
sg29
g11
sg30
I257817
sg31
g11
ssS'HUGHES JAMES A'
p340
(dp341
g3
I719
sg4
F0.048678720445062586
sg5
g6
sg7
g11
sg8
g6
sg9
I00
sg10
F0.6750447516706992
sg12
g6
sg13
S'james.hughes@enron.com'
p342
sg15
g6
sg16
g6
sg17
I589
sg18
g6
sg19
I34
sg20
g6
sg21
g6
sg22
g6
sg23
I1118394
sg24
I35
sg25
I5
sg26
I363428
sg27
g6
sg28
g6
sg29
F0.14705882352941177
sg30
I754966
sg31
g11
ssS'REYNOLDS LAWRENCE'
p343
(dp344
g3
g6
sg4
g11
sg5
I51365
sg7
F0.76399
sg8
I8409
sg9
I00
sg10
F0.9854996256416853
sg12
I-200000
sg13
g6
sg15
I156250
sg16
I-140264
sg17
g6
sg18
g6
sg19
g6
sg20
I202052
sg21
g6
sg22
I100000
sg23
I4221891
sg24
g6
sg25
g6
sg26
I201483
sg27
I76399
sg28
I394475
sg29
g11
sg30
I4160672
sg31
F0.2535014893212498
ssS'DIMICHELE RICHARD G'
p345
(dp346
g3
g6
sg4
g11
sg5
g6
sg7
F0.262788
sg8
I35812
sg9
I00
sg10
F0.9848484848484849
sg12
g6
sg13
S'richard.dimichele@enron.com'
p347
sg15
I694862
sg16
g6
sg17
g6
sg18
g6
sg19
g6
sg20
I374689
sg21
g6
sg22
I1000000
sg23
I8317782
sg24
g6
sg25
g6
sg26
I126027
sg27
I262788
sg28
I2368151
sg29
g11
sg30
I8191755
sg31
F0.42227037042823706
ssS'BHATNAGAR SANJAY'
p348
(dp349
g3
I523
sg4
F0.0
sg5
g6
sg7
g11
sg8
g6
sg9
I00
sg10
g11
sg12
g6
sg13
S'sanjay.bhatnagar@enron.com'
p350
sg15
g6
sg16
I15456290
sg17
I463
sg18
g6
sg19
I29
sg20
I137864
sg21
I137864
sg22
g6
sS'total_stock_value'
p351
S'NaN'
p352
sg24
I0
sg25
I1
sg26
I-2604490
sg27
g6
sg28
I15456290
sg29
F0.034482758620689655
sg30
I2604490
sg31
g11
ssS'CARTER REBECCA C'
p353
(dp354
g3
I312
sg4
F0.09294871794871795
sg5
g6
sg7
F0.8726966666666667
sg8
g6
sg9
I00
sg10
g11
sg12
I-159792
sg13
S'rebecca.carter@enron.com'
p355
sg15
I75000
sg16
I-307301
sg17
I196
sg18
g6
sg19
I15
sg20
I540
sg21
g6
sg22
I300000
sg23
g6
sg24
I29
sg25
I7
sg26
I307301
sg27
I261809
sg28
I477557
sg29
F0.4666666666666667
sg30
g6
sg31
F0.6281972623163308
ssS'BUCHANAN HAROLD G'
p356
(dp357
g3
I1088
sg4
F0.0
sg5
g6
sg7
F0.496034
sg8
I600
sg9
I00
sg10
F0.8136618350821336
sg12
g6
sg13
S'john.buchanan@enron.com'
p358
sg15
I304805
sg16
g6
sg17
I23
sg18
g6
sg19
I125
sg20
I1215
sg21
g6
sg22
I500000
sg23
I1014505
sg24
I0
sg25
I0
sg26
I189041
sg27
I248017
sg28
I1054637
sg29
F0.0
sg30
I825464
sg31
F0.47409677453000415
ssS'YEAP SOON'
p359
(dp360
g3
g6
sg4
g11
sg5
g6
sg7
g11
sg8
I55097
sg9
I00
sg10
F1.0
sg12
g6
sg13
g6
sg15
g6
sg16
g6
sg17
g6
sg18
g6
sg19
g6
sg20
g6
sg21
g6
sg22
g6
sg23
I192758
sg24
g6
sg25
g6
sg26
g6
sg27
g6
sg28
I55097
sg29
g11
sg30
I192758
sg31
g11
ssS'MURRAY JULIA H'
p361
(dp362
g3
I2192
sg4
F0.005018248175182482
sg5
g6
sg7
F0.57321
sg8
I57580
sg9
I00
sg10
F0.6702998187329382
sg12
g6
sg13
S'julia.murray@enron.com'
p363
sg15
I125000
sg16
g6
sg17
I395
sg18
g6
sg19
I45
sg20
I330
sg21
g6
sg22
I400000
sg23
I597461
sg24
I11
sg25
I2
sg26
I196983
sg27
I229284
sg28
I812194
sg29
F0.044444444444444446
sg30
I400478
sg31
F0.4924931728133919
ssS'GARLAND C KEVIN'
p364
(dp365
g3
I209
sg4
F0.04784688995215311
sg5
g6
sg7
F0.2728776470588235
sg8
I48405
sg9
I00
sg10
F0.7099747476156415
sg12
g6
sg13
S'kevin.garland@enron.com'
p366
sg15
I375304
sg16
g6
sg17
I178
sg18
g6
sg19
I44
sg20
I60814
sg21
g6
sg22
I850000
sg23
I896153
sg24
I10
sg25
I27
sg26
I259907
sg27
I231946
sg28
I1566469
sg29
F0.6136363636363636
sg30
I636246
sg31
F0.5426216541789208
ssS'DODSON KEITH'
p367
(dp368
g3
I176
sg4
F0.056818181818181816
sg5
g6
sg7
F3.1571857142857143
sg8
I28164
sg9
I00
sg10
g11
sg12
g6
sg13
S'keith.dodson@enron.com'
p369
sg15
g6
sg16
g6
sg17
I114
sg18
g6
sg19
I14
sg20
I774
sg21
g6
sg22
I70000
sg23
g6
sg24
I10
sg25
I3
sg26
g6
sg27
I221003
sg28
I319941
sg29
F0.21428571428571427
sg30
g6
sg31
F0.21879033946883958
ssS'YEAGER F SCOTT'
p370
(dp371
g3
g6
sg4
g11
sg5
g6
sg7
g11
sg8
I53947
sg9
I01
sg10
F0.6990930736662875
sg12
g6
sg13
S'scott.yeager@enron.com'
p372
sg15
g6
sg16
g6
sg17
g6
sg18
g6
sg19
g6
sg20
I147950
sg21
g6
sg22
g6
sg23
I11884758
sg24
g6
sg25
g6
sg26
I3576206
sg27
I158403
sg28
I360300
sg29
g11
sg30
I8308552
sg31
g11
ssS'HIRKO JOSEPH'
p373
(dp374
g3
g6
sg4
g11
sg5
I10259
sg7
g11
sg8
I77978
sg9
I01
sg10
F1.0
sg12
g6
sg13
S'joe.hirko@enron.com'
p375
sg15
g6
sg16
g6
sg17
g6
sg18
g6
sg19
g6
sg20
I2856
sg21
g6
sg22
g6
sg23
I30766064
sg24
g6
sg25
g6
sg26
g6
sg27
g6
sg28
I91093
sg29
g11
sg30
I30766064
sg31
g11
ssS'DIETRICH JANET R'
p376
(dp377
g3
I2572
sg4
F0.11858475894245724
sg5
g6
sg7
F0.41683333333333333
sg8
I3475
sg9
I00
sg10
F0.8310706149364614
sg12
g6
sg13
S'janet.dietrich@enron.com'
p378
sg15
I556416
sg16
g6
sg17
I1902
sg18
g6
sg19
I63
sg20
I473
sg21
g6
sg22
I600000
sg23
I1865087
sg24
I305
sg25
I14
sg26
I315068
sg27
I250100
sg28
I1410464
sg29
F0.2222222222222222
sg30
I1550019
sg31
F0.4253919277627788
ssS'DERRICK JR. JAMES V'
p379
(dp380
g3
I2181
sg4
F0.029344337459880788
sg5
g6
sg7
F0.61546875
sg8
I51124
sg9
I00
sg10
F1.0
sg12
I-1284000
sg13
S'james.derrick@enron.com'
p381
sg15
I484000
sg16
I-1787380
sg17
I1401
sg18
g6
sg19
I909
sg20
I7482
sg21
g6
sg22
I800000
sg23
I8831913
sg24
I64
sg25
I20
sg26
I1787380
sg27
I492375
sg28
I550981
sg29
F0.022002200220022004
sg30
I8831913
sg31
F1.4519556935720106
ssS'FREVERT MARK A'
p382
(dp383
g3
I3275
sg4
F0.07389312977099237
sg5
I6426990
sg7
F0.530466
sg8
I86987
sg9
I00
sg10
F0.713540281428528
sg12
I-3367011
sg13
S'mark.frevert@enron.com'
p384
sg15
I1617011
sg16
g6
sg17
I2979
sg18
I2000000
sg19
I21
sg20
I7427621
sg21
g6
sg22
I2000000
sg23
I14622185
sg24
I242
sg25
I6
sg26
I4188667
sg27
I1060932
sg28
I17252530
sg29
F0.2857142857142857
sg30
I10433518
sg31
F0.1159250266482655
ssS'PAI LOU L'
p385
(dp386
g3
g6
sg4
g11
sg5
g6
sg7
F0.261879
sg8
I32047
sg9
I00
sg10
F0.6450672665508715
sg12
g6
sg13
S'lou.pai@enron.com'
p387
sg15
g6
sg16
g6
sg17
g6
sg18
g6
sg19
g6
sg20
I1829457
sg21
g6
sg22
I1000000
sg23
I23817930
sg24
g6
sg25
g6
sg26
I8453763
sg27
I261879
sg28
I3123383
sg29
g11
sg30
I15364167
sg31
F0.3201656665224854
ssS'BAY FRANKLIN R'
p388
(dp389
g3
g6
sg4
g11
sg5
I260455
sg7
F0.5991775
sg8
I129142
sg9
I00
sg10
g11
sg12
I-201641
sg13
S'frank.bay@enron.com'
p390
sg15
g6
sg16
I-82782
sg17
g6
sg18
g6
sg19
g6
sg20
I69
sg21
g6
sg22
I400000
sg23
I63014
sg24
g6
sg25
g6
sg26
I145796
sg27
I239671
sg28
I827696
sg29
g11
sg30
g6
sg31
F0.48326921961686414
ssS'HAYSLETT RODERICK J'
p391
(dp392
g3
I2649
sg4
F0.01321253303133258
sg5
g6
sg7
g11
sg8
g6
sg9
I00
sg10
g11
sg12
g6
sg13
S'rod.hayslett@enron.com'
p393
sg15
g6
sg16
g6
sg17
I571
sg18
g6
sg19
I1061
sg20
g6
sg21
g6
sg22
g6
sg23
I346663
sg24
I35
sg25
I38
sg26
I346663
sg27
g6
sg28
g6
sg29
F0.03581526861451461
sg30
g6
sg31
g11
ssS'FUGH JOHN L'
p394
(dp395
g3
g6
sg4
g11
sg5
I50591
sg7
g11
sg8
g6
sg9
I00
sg10
F1.0
sg12
g6
sg13
g6
sg15
g6
sg16
g6
sg17
g6
sg18
g6
sg19
g6
sg20
g6
sg21
g6
sg22
g6
sg23
I176378
sg24
g6
sg25
g6
sg26
g6
sg27
g6
sg28
I50591
sg29
g11
sg30
I176378
sg31
g11
ssS'FALLON JAMES B'
p396
(dp397
g3
I1755
sg4
F0.023931623931623933
sg5
g6
sg7
F0.1218352
sg8
I95924
sg9
I00
sg10
F0.40312870996771993
sg12
g6
sg13
S'jim.fallon@enron.com'
p398
sg15
I374347
sg16
g6
sg17
I1604
sg18
g6
sg19
I75
sg20
I401481
sg21
g6
sg22
I2500000
sg23
I2332399
sg24
I42
sg25
I37
sg26
I1392142
sg27
I304588
sg28
I3676340
sg29
F0.49333333333333335
sg30
I940257
sg31
F0.6800241544579664
ssS'KOENIG MARK E'
p399
(dp400
g3
I2374
sg4
F0.02232518955349621
sg5
g6
sg7
F0.44278
sg8
I127017
sg9
I01
sg10
F0.3498529990026327
sg12
g6
sg13
S'mark.koenig@enron.com'
p401
sg15
I300000
sg16
g6
sg17
I2271
sg18
g6
sg19
I61
sg20
I150458
sg21
g6
sg22
I700000
sg23
I1920055
sg24
I53
sg25
I15
sg26
I1248318
sg27
I309946
sg28
I1587421
sg29
F0.2459016393442623
sg30
I671737
sg31
F0.44096682606567505
ssS'SAVAGE FRANK'
p402
(dp403
g3
g6
sg4
g11
sg5
g6
sg7
g11
sg8
g6
sg9
I00
sg10
g11
sg12
I-121284
sg13
g6
sg15
g6
sg16
g6
sg17
g6
sg18
g6
sg19
g6
sg20
g6
sg21
I125034
sg22
g6
sg23
g6
sg24
g6
sg25
g6
sg26
g6
sg27
g6
sg28
I3750
sg29
g11
sg30
g6
sg31
g11
ssS'IZZO LAWRENCE L'
p404
(dp405
g3
I496
sg4
F0.056451612903225805
sg5
g6
sg7
g11
sg8
I28093
sg9
I00
sg10
F0.3720239588452194
sg12
g6
sg13
S'larry.izzo@enron.com'
p406
sg15
I312500
sg16
g6
sg17
I437
sg18
g6
sg19
I19
sg20
I1553729
sg21
g6
sg22
g6
sg23
I5819980
sg24
I28
sg25
I5
sg26
I3654808
sg27
I85274
sg28
I1979596
sg29
F0.2631578947368421
sg30
I2165172
sg31
g11
ssS'TILNEY ELIZABETH A'
p407
(dp408
g3
I460
sg4
F0.021739130434782608
sg5
g6
sg7
F0.82446
sg8
g6
sg9
I00
sg10
F0.5061889897794771
sg12
I-575000
sg13
S'elizabeth.tilney@enron.com'
p409
sg15
I275000
sg16
g6
sg17
I379
sg18
g6
sg19
I19
sg20
I152055
sg21
g6
sg22
I300000
sg23
I1168042
sg24
I10
sg25
I11
sg26
I576792
sg27
I247338
sg28
I399393
sg29
F0.5789473684210527
sg30
I591250
sg31
F0.7511398547295521
ssS'MARTIN AMANDA K'
p410
(dp411
g3
I1522
sg4
F0.005256241787122208
sg5
I85430
sg7
g11
sg8
I8211
sg9
I00
sg10
F1.0
sg12
g6
sg13
S'a..martin@enron.com'
p412
sg15
I5145434
sg16
g6
sg17
I477
sg18
g6
sg19
I230
sg20
I2818454
sg21
g6
sg22
g6
sg23
I2070306
sg24
I8
sg25
I0
sg26
g6
sg27
I349487
sg28
I8407016
sg29
F0.0
sg30
I2070306
sg31
g11
ssS'BUY RICHARD B'
p413
(dp414
g3
I3523
sg4
F0.04428044280442804
sg5
I649584
sg7
F0.36727333333333334
sg8
g6
sg9
I00
sg10
F0.7382305550636237
sg12
I-694862
sg13
S'rick.buy@enron.com'
p415
sg15
I769862
sg16
g6
sg17
I2333
sg18
g6
sg19
I1053
sg20
I400572
sg21
g6
sg22
I900000
sg23
I3444470
sg24
I156
sg25
I71
sg26
I901657
sg27
I330546
sg28
I2355702
sg29
F0.06742640075973409
sg30
I2542813
sg31
F0.38205171961479
ssS'GRAMM WENDY L'
p416
(dp417
g3
g6
sg4
g11
sg5
g6
sg7
g11
sg8
g6
sg9
I00
sg10
g11
sg12
g6
sg13
g6
sg15
g6
sg16
g6
sg17
g6
sg18
g6
sg19
g6
sg20
g6
sg21
I119292
sg22
g6
sg23
g6
sg24
g6
sg25
g6
sg26
g6
sg27
g6
sg28
I119292
sg29
g11
sg30
g6
sg31
g11
ssS'CAUSEY RICHARD A'
p418
(dp419
g3
I1892
sg4
F0.0306553911205074
sg5
g6
sg7
F0.415189
sg8
I30674
sg9
I01
sg10
g11
sg12
I-235000
sg13
S'richard.causey@enron.com'
p420
sg15
I350000
sg16
g6
sg17
I1585
sg18
g6
sg19
I49
sg20
I307895
sg21
g6
sg22
I1000000
sg23
I2502063
sg24
I58
sg25
I12
sg26
I2502063
sg27
I415189
sg28
I1868758
sg29
F0.24489795918367346
sg30
g6
sg31
F0.5351147660638778
ssS'TAYLOR MITCHELL S'
p421
(dp422
g3
I533
sg4
F0.0
sg5
I227449
sg7
F0.4420233333333333
sg8
g6
sg9
I00
sg10
F0.849455067064561
sg12
g6
sg13
S'mitchell.taylor@enron.com'
p423
sg15
g6
sg16
g6
sg17
I300
sg18
g6
sg19
I29
sg20
g6
sg21
g6
sg22
I600000
sg23
I3745048
sg24
I0
sg25
I0
sg26
I563798
sg27
I265214
sg28
I1092663
sg29
F0.0
sg30
I3181250
sg31
F0.5491171568910085
ssS'DONAHUE JR JEFFREY M'
p424
(dp425
g3
I865
sg4
F0.21734104046242775
sg5
g6
sg7
F0.34825125
sg8
I96268
sg9
I00
sg10
F0.7085370050361336
sg12
I-300000
sg13
S'jeff.donahue@enron.com'
p426
sg15
g6
sg16
g6
sg17
I772
sg18
g6
sg19
I22
sg20
I891
sg21
g6
sg22
I800000
sg23
I1080988
sg24
I188
sg25
I11
sg26
I315068
sg27
I278601
sg28
I875760
sg29
F0.5
sg30
I765920
sg31
F0.9134922809902256
ssS'GLISAN JR BEN F'
p427
(dp428
g3
I873
sg4
F0.05956471935853379
sg5
g6
sg7
F0.45829166666666665
sg8
I125978
sg9
I01
sg10
F0.49416219465516487
sg12
g6
sg13
S'ben.glisan@enron.com'
p429
sg15
I71023
sg16
g6
sg17
I874
sg18
g6
sg19
I16
sg20
I200308
sg21
g6
sg22
I600000
sg23
I778546
sg24
I52
sg25
I6
sg26
I393818
sg27
I274975
sg28
I1272284
sg29
F0.375
sg30
I384728
sg31
F0.4715928204709012
ss.