(lp0
S'poi'
p1
aS'bonus_total_ratio'
p2
aS'total_stock_value'
p3
aS'exercised_stock_options'
p4
aS'to_messages'
p5
aS'from_messages'
p6
aS'from_email_poi_proportion'
p7
aS'to_email_poi_proportion'
p8
a.