(lp0
S'poi'
p1
aS'salary_bonus_ratio'
p2
aS'bonus_total_ratio'
p3
aS'total_stock_value'
p4
aS'exercised_stock_options'
p5
aS'director_fees'
p6
aS'to_messages'
p7
aS'from_messages'
p8
aS'stock_ratio'
p9
aS'from_ratio'
p10
aS'to_ratio'
p11
a.